target datalayout = "e-m:e-p270:32:32-p271:32:32-p272:64:64-i64:64-i128:128-f80:128-n8:16:32:64-S128"
target triple = "x86_64-pc-linux-gnu"

%struct.PutBitContext = type { i32, i32, ptr, ptr, ptr }

@ff_log2_tab = external constant [256 x i8], align 16
@.str.43 = private unnamed_addr constant [43 x i8] c"Internal error, put_bits buffer too small\0A\00", align 1

; Function Attrs: alwaysinline nounwind willreturn memory(none) uwtable
define internal i32 @av_bswap32(i32 noundef %0) #4 {
  %2 = alloca i32, align 4
  store i32 %0, ptr %2, align 4, !tbaa !32
  %3 = load i32, ptr %2, align 4, !tbaa !32
  %4 = shl i32 %3, 8
  %5 = and i32 %4, 65280
  %6 = load i32, ptr %2, align 4, !tbaa !32
  %7 = lshr i32 %6, 8
  %8 = and i32 %7, 255
  %9 = or i32 %5, %8
  %10 = shl i32 %9, 16
  %11 = load i32, ptr %2, align 4, !tbaa !32
  %12 = lshr i32 %11, 16
  %13 = shl i32 %12, 8
  %14 = and i32 %13, 65280
  %15 = load i32, ptr %2, align 4, !tbaa !32
  %16 = lshr i32 %15, 16
  %17 = lshr i32 %16, 8
  %18 = and i32 %17, 255
  %19 = or i32 %14, %18
  %20 = or i32 %10, %19
  ret i32 %20
}

; Function Attrs: alwaysinline nounwind willreturn memory(none) uwtable
define internal i32 @av_zero_extend_c(i32 noundef %0, i32 noundef %1) #4 {
  %3 = alloca i32, align 4
  %4 = alloca i32, align 4
  store i32 %0, ptr %3, align 4, !tbaa !32
  store i32 %1, ptr %4, align 4, !tbaa !32
  %5 = load i32, ptr %3, align 4, !tbaa !32
  %6 = load i32, ptr %4, align 4, !tbaa !32
  %7 = shl i32 1, %6
  %8 = sub i32 %7, 1
  %9 = and i32 %5, %8
  ret i32 %9
}

; Function Attrs: inlinehint nounwind uwtable
define internal void @put_bits_no_assert(ptr noundef %0, i32 noundef %1, i32 noundef %2) #8 {
  %4 = alloca ptr, align 8
  %5 = alloca i32, align 4
  %6 = alloca i32, align 4
  %7 = alloca i32, align 4
  %8 = alloca i32, align 4
  store ptr %0, ptr %4, align 8, !tbaa !138
  store i32 %1, ptr %5, align 4, !tbaa !32
  store i32 %2, ptr %6, align 4, !tbaa !32
  call void @llvm.lifetime.start.p0(i64 4, ptr %7) #11
  call void @llvm.lifetime.start.p0(i64 4, ptr %8) #11
  %9 = load ptr, ptr %4, align 8, !tbaa !138
  %10 = getelementptr inbounds nuw %struct.PutBitContext, ptr %9, i32 0, i32 0
  %11 = load i32, ptr %10, align 8, !tbaa !145
  store i32 %11, ptr %7, align 4, !tbaa !32
  %12 = load ptr, ptr %4, align 8, !tbaa !138
  %13 = getelementptr inbounds nuw %struct.PutBitContext, ptr %12, i32 0, i32 1
  %14 = load i32, ptr %13, align 4, !tbaa !144
  store i32 %14, ptr %8, align 4, !tbaa !32
  %15 = load i32, ptr %5, align 4, !tbaa !32
  %16 = load i32, ptr %8, align 4, !tbaa !32
  %17 = icmp slt i32 %15, %16
  br i1 %17, label %18, label %27

18:                                               ; preds = %3
  %19 = load i32, ptr %7, align 4, !tbaa !32
  %20 = load i32, ptr %5, align 4, !tbaa !32
  %21 = shl i32 %19, %20
  %22 = load i32, ptr %6, align 4, !tbaa !32
  %23 = or i32 %21, %22
  store i32 %23, ptr %7, align 4, !tbaa !32
  %24 = load i32, ptr %5, align 4, !tbaa !32
  %25 = load i32, ptr %8, align 4, !tbaa !32
  %26 = sub nsw i32 %25, %24
  store i32 %26, ptr %8, align 4, !tbaa !32
  br label %65

27:                                               ; preds = %3
  %28 = load i32, ptr %8, align 4, !tbaa !32
  %29 = load i32, ptr %7, align 4, !tbaa !32
  %30 = shl i32 %29, %28
  store i32 %30, ptr %7, align 4, !tbaa !32
  %31 = load i32, ptr %6, align 4, !tbaa !32
  %32 = load i32, ptr %5, align 4, !tbaa !32
  %33 = load i32, ptr %8, align 4, !tbaa !32
  %34 = sub nsw i32 %32, %33
  %35 = lshr i32 %31, %34
  %36 = load i32, ptr %7, align 4, !tbaa !32
  %37 = or i32 %36, %35
  store i32 %37, ptr %7, align 4, !tbaa !32
  %38 = load ptr, ptr %4, align 8, !tbaa !138
  %39 = getelementptr inbounds nuw %struct.PutBitContext, ptr %38, i32 0, i32 4
  %40 = load ptr, ptr %39, align 8, !tbaa !142
  %41 = load ptr, ptr %4, align 8, !tbaa !138
  %42 = getelementptr inbounds nuw %struct.PutBitContext, ptr %41, i32 0, i32 3
  %43 = load ptr, ptr %42, align 8, !tbaa !143
  %44 = ptrtoint ptr %40 to i64
  %45 = ptrtoint ptr %43 to i64
  %46 = sub i64 %44, %45
  %47 = icmp uge i64 %46, 4
  br i1 %47, label %48, label %58

48:                                               ; preds = %27
  %49 = load i32, ptr %7, align 4, !tbaa !32
  %50 = call i32 @av_bswap32(i32 noundef %49) #12
  %51 = load ptr, ptr %4, align 8, !tbaa !138
  %52 = getelementptr inbounds nuw %struct.PutBitContext, ptr %51, i32 0, i32 3
  %53 = load ptr, ptr %52, align 8, !tbaa !143
  store i32 %50, ptr %53, align 1, !tbaa !76
  %54 = load ptr, ptr %4, align 8, !tbaa !138
  %55 = getelementptr inbounds nuw %struct.PutBitContext, ptr %54, i32 0, i32 3
  %56 = load ptr, ptr %55, align 8, !tbaa !143
  %57 = getelementptr inbounds nuw i8, ptr %56, i64 4
  store ptr %57, ptr %55, align 8, !tbaa !143
  br label %59

58:                                               ; preds = %27
  call void (ptr, i32, ptr, ...) @av_log(ptr noundef null, i32 noundef 16, ptr noundef @.str.43)
  br label %59

59:                                               ; preds = %58, %48
  %60 = load i32, ptr %5, align 4, !tbaa !32
  %61 = sub nsw i32 32, %60
  %62 = load i32, ptr %8, align 4, !tbaa !32
  %63 = add nsw i32 %62, %61
  store i32 %63, ptr %8, align 4, !tbaa !32
  %64 = load i32, ptr %6, align 4, !tbaa !32
  store i32 %64, ptr %7, align 4, !tbaa !32
  br label %65

65:                                               ; preds = %59, %18
  %66 = load i32, ptr %7, align 4, !tbaa !32
  %67 = load ptr, ptr %4, align 8, !tbaa !138
  %68 = getelementptr inbounds nuw %struct.PutBitContext, ptr %67, i32 0, i32 0
  store i32 %66, ptr %68, align 8, !tbaa !145
  %69 = load i32, ptr %8, align 4, !tbaa !32
  %70 = load ptr, ptr %4, align 8, !tbaa !138
  %71 = getelementptr inbounds nuw %struct.PutBitContext, ptr %70, i32 0, i32 1
  store i32 %69, ptr %71, align 4, !tbaa !144
  call void @llvm.lifetime.end.p0(i64 4, ptr %8) #11
  call void @llvm.lifetime.end.p0(i64 4, ptr %7) #11
  ret void
}

; Function Attrs: inlinehint nounwind uwtable
define internal void @put_sbits(ptr noundef %0, i32 noundef %1, i32 noundef %2) #8 {
  %4 = alloca ptr, align 8
  %5 = alloca i32, align 4
  %6 = alloca i32, align 4
  store ptr %0, ptr %4, align 8, !tbaa !138
  store i32 %1, ptr %5, align 4, !tbaa !32
  store i32 %2, ptr %6, align 4, !tbaa !32
  %7 = load ptr, ptr %4, align 8, !tbaa !138
  %8 = load i32, ptr %5, align 4, !tbaa !32
  %9 = load i32, ptr %6, align 4, !tbaa !32
  %10 = load i32, ptr %5, align 4, !tbaa !32
  %11 = call i32 @av_zero_extend_c(i32 noundef %9, i32 noundef %10) #12
  call void @put_bits(ptr noundef %7, i32 noundef %8, i32 noundef %11)
  ret void
}

; Function Attrs: inlinehint nounwind uwtable
define internal void @put_bits(ptr noundef %0, i32 noundef %1, i32 noundef %2) #8 {
  %4 = alloca ptr, align 8
  %5 = alloca i32, align 4
  %6 = alloca i32, align 4
  store ptr %0, ptr %4, align 8, !tbaa !138
  store i32 %1, ptr %5, align 4, !tbaa !32
  store i32 %2, ptr %6, align 4, !tbaa !32
  %7 = load ptr, ptr %4, align 8, !tbaa !138
  %8 = load i32, ptr %5, align 4, !tbaa !32
  %9 = load i32, ptr %6, align 4, !tbaa !32
  call void @put_bits_no_assert(ptr noundef %7, i32 noundef %8, i32 noundef %9)
  ret void
}

; Function Attrs: alwaysinline nounwind willreturn memory(none) uwtable
define internal i32 @ff_log2_c(i32 noundef %0) #4 {
  %2 = alloca i32, align 4
  %3 = alloca i32, align 4
  store i32 %0, ptr %2, align 4, !tbaa !32
  call void @llvm.lifetime.start.p0(i64 4, ptr %3) #11
  store i32 0, ptr %3, align 4, !tbaa !32
  %4 = load i32, ptr %2, align 4, !tbaa !32
  %5 = and i32 %4, -65536
  %6 = icmp ne i32 %5, 0
  br i1 %6, label %7, label %12

7:                                                ; preds = %1
  %8 = load i32, ptr %2, align 4, !tbaa !32
  %9 = lshr i32 %8, 16
  store i32 %9, ptr %2, align 4, !tbaa !32
  %10 = load i32, ptr %3, align 4, !tbaa !32
  %11 = add nsw i32 %10, 16
  store i32 %11, ptr %3, align 4, !tbaa !32
  br label %12

12:                                               ; preds = %7, %1
  %13 = load i32, ptr %2, align 4, !tbaa !32
  %14 = and i32 %13, 65280
  %15 = icmp ne i32 %14, 0
  br i1 %15, label %16, label %21

16:                                               ; preds = %12
  %17 = load i32, ptr %2, align 4, !tbaa !32
  %18 = lshr i32 %17, 8
  store i32 %18, ptr %2, align 4, !tbaa !32
  %19 = load i32, ptr %3, align 4, !tbaa !32
  %20 = add nsw i32 %19, 8
  store i32 %20, ptr %3, align 4, !tbaa !32
  br label %21

21:                                               ; preds = %16, %12
  %22 = load i32, ptr %2, align 4, !tbaa !32
  %23 = zext i32 %22 to i64
  %24 = getelementptr inbounds nuw [256 x i8], ptr @ff_log2_tab, i64 0, i64 %23
  %25 = load i8, ptr %24, align 1, !tbaa !76
  %26 = zext i8 %25 to i32
  %27 = load i32, ptr %3, align 4, !tbaa !32
  %28 = add nsw i32 %27, %26
  store i32 %28, ptr %3, align 4, !tbaa !32
  %29 = load i32, ptr %3, align 4, !tbaa !32
  call void @llvm.lifetime.end.p0(i64 4, ptr %3) #11
  ret i32 %29
}

; Function Attrs: inlinehint nounwind uwtable
define internal void @encode_vlc_codeword(ptr noundef %0, i32 noundef %1, i32 noundef %2) #8 {
  %4 = alloca ptr, align 8
  %5 = alloca i32, align 4
  %6 = alloca i32, align 4
  %7 = alloca i32, align 4
  %8 = alloca i32, align 4
  %9 = alloca i32, align 4
  %10 = alloca i32, align 4
  %11 = alloca i32, align 4
  store ptr %0, ptr %4, align 8, !tbaa !138
  store i32 %1, ptr %5, align 4, !tbaa !32
  store i32 %2, ptr %6, align 4, !tbaa !32
  call void @llvm.lifetime.start.p0(i64 4, ptr %7) #11
  call void @llvm.lifetime.start.p0(i64 4, ptr %8) #11
  call void @llvm.lifetime.start.p0(i64 4, ptr %9) #11
  call void @llvm.lifetime.start.p0(i64 4, ptr %10) #11
  call void @llvm.lifetime.start.p0(i64 4, ptr %11) #11
  %12 = load i32, ptr %5, align 4, !tbaa !32
  %13 = and i32 %12, 3
  %14 = add i32 %13, 1
  store i32 %14, ptr %9, align 4, !tbaa !32
  %15 = load i32, ptr %5, align 4, !tbaa !32
  %16 = lshr i32 %15, 5
  store i32 %16, ptr %7, align 4, !tbaa !32
  %17 = load i32, ptr %5, align 4, !tbaa !32
  %18 = lshr i32 %17, 2
  %19 = and i32 %18, 7
  store i32 %19, ptr %8, align 4, !tbaa !32
  %20 = load i32, ptr %9, align 4, !tbaa !32
  %21 = load i32, ptr %7, align 4, !tbaa !32
  %22 = shl i32 %20, %21
  store i32 %22, ptr %10, align 4, !tbaa !32
  %23 = load i32, ptr %6, align 4, !tbaa !32
  %24 = load i32, ptr %10, align 4, !tbaa !32
  %25 = icmp uge i32 %23, %24
  br i1 %25, label %26, label %45

26:                                               ; preds = %3
  %27 = load i32, ptr %10, align 4, !tbaa !32
  %28 = load i32, ptr %8, align 4, !tbaa !32
  %29 = shl i32 1, %28
  %30 = sub i32 %27, %29
  %31 = load i32, ptr %6, align 4, !tbaa !32
  %32 = sub i32 %31, %30
  store i32 %32, ptr %6, align 4, !tbaa !32
  %33 = load i32, ptr %6, align 4, !tbaa !32
  %34 = call i32 @ff_log2_c(i32 noundef %33) #12
  store i32 %34, ptr %11, align 4, !tbaa !32
  %35 = load ptr, ptr %4, align 8, !tbaa !138
  %36 = load i32, ptr %11, align 4, !tbaa !32
  %37 = load i32, ptr %8, align 4, !tbaa !32
  %38 = sub i32 %36, %37
  %39 = load i32, ptr %9, align 4, !tbaa !32
  %40 = add i32 %38, %39
  call void @put_bits(ptr noundef %35, i32 noundef %40, i32 noundef 0)
  %41 = load ptr, ptr %4, align 8, !tbaa !138
  %42 = load i32, ptr %11, align 4, !tbaa !32
  %43 = add nsw i32 %42, 1
  %44 = load i32, ptr %6, align 4, !tbaa !32
  call void @put_bits(ptr noundef %41, i32 noundef %43, i32 noundef %44)
  br label %63

45:                                               ; preds = %3
  %46 = load i32, ptr %6, align 4, !tbaa !32
  %47 = load i32, ptr %7, align 4, !tbaa !32
  %48 = ashr i32 %46, %47
  store i32 %48, ptr %11, align 4, !tbaa !32
  %49 = load i32, ptr %11, align 4, !tbaa !32
  %50 = icmp ne i32 %49, 0
  br i1 %50, label %51, label %54

51:                                               ; preds = %45
  %52 = load ptr, ptr %4, align 8, !tbaa !138
  %53 = load i32, ptr %11, align 4, !tbaa !32
  call void @put_bits(ptr noundef %52, i32 noundef %53, i32 noundef 0)
  br label %54

54:                                               ; preds = %51, %45
  %55 = load ptr, ptr %4, align 8, !tbaa !138
  call void @put_bits(ptr noundef %55, i32 noundef 1, i32 noundef 1)
  %56 = load i32, ptr %7, align 4, !tbaa !32
  %57 = icmp ne i32 %56, 0
  br i1 %57, label %58, label %62

58:                                               ; preds = %54
  %59 = load ptr, ptr %4, align 8, !tbaa !138
  %60 = load i32, ptr %7, align 4, !tbaa !32
  %61 = load i32, ptr %6, align 4, !tbaa !32
  call void @put_sbits(ptr noundef %59, i32 noundef %60, i32 noundef %61)
  br label %62

62:                                               ; preds = %58, %54
  br label %63

63:                                               ; preds = %62, %26
  call void @llvm.lifetime.end.p0(i64 4, ptr %11) #11
  call void @llvm.lifetime.end.p0(i64 4, ptr %10) #11
  call void @llvm.lifetime.end.p0(i64 4, ptr %9) #11
  call void @llvm.lifetime.end.p0(i64 4, ptr %8) #11
  call void @llvm.lifetime.end.p0(i64 4, ptr %7) #11
  ret void
}