; Function Attrs: inlinehint nounwind uwtable
define internal fastcc void @encode_vlc_codeword(ptr noundef nonnull captures(none) %0, i32 noundef range(i32 0, 256) %1, i32 noundef %2) unnamed_addr #8 {
  %4 = and i32 %1, 3
  %5 = add nuw nsw i32 %4, 1
  %6 = lshr i32 %1, 5
  %7 = shl nuw nsw i32 %5, %6
  %.not = icmp ult i32 %2, %7
  br i1 %.not, label %70, label %8

8:                                                ; preds = %3
  %9 = lshr i32 %1, 2
  %10 = and i32 %9, 7
  %.neg.neg51 = shl nuw nsw i32 1, %10
  %.neg46 = sub nuw i32 %2, %7
  %11 = add i32 %.neg46, %.neg.neg51
  %.not.i = icmp ult i32 %11, 65536
  %12 = lshr i32 %11, 16
  %spec.select.i = select i1 %.not.i, i32 %11, i32 %12
  %spec.select12.i = select i1 %.not.i, i32 0, i32 16
  %.not11.i = icmp samesign ult i32 %spec.select.i, 256
  %13 = lshr i32 %spec.select.i, 8
  %14 = or disjoint i32 %spec.select12.i, 8
  %.110.i = select i1 %.not11.i, i32 %spec.select.i, i32 %13
  %.1.i = select i1 %.not11.i, i32 %spec.select12.i, i32 %14
  %15 = zext nneg i32 %.110.i to i64
  %16 = getelementptr inbounds nuw [256 x i8], ptr @ff_log2_tab, i64 0, i64 %15
  %17 = load i8, ptr %16, align 1, !tbaa !70
  %18 = zext i8 %17 to i32
  %19 = add nuw nsw i32 %.1.i, %18
  %20 = sub nsw i32 %19, %10
  %21 = add nsw i32 %20, %5
  %22 = load i32, ptr %0, align 8, !tbaa !112
  %23 = getelementptr inbounds nuw i8, ptr %0, i64 4
  %24 = load i32, ptr %23, align 4, !tbaa !111
  %25 = icmp slt i32 %21, %24
  br i1 %25, label %26, label %28

26:                                               ; preds = %8
  %27 = shl i32 %22, %21
  br label %put_bits.exit

28:                                               ; preds = %8
  %29 = getelementptr inbounds nuw i8, ptr %0, i64 24
  %30 = load ptr, ptr %29, align 8, !tbaa !109
  %31 = getelementptr inbounds nuw i8, ptr %0, i64 16
  %32 = load ptr, ptr %31, align 8, !tbaa !110
  %33 = ptrtoint ptr %30 to i64
  %34 = ptrtoint ptr %32 to i64
  %35 = sub i64 %33, %34
  %36 = icmp ugt i64 %35, 3
  br i1 %36, label %37, label %42

37:                                               ; preds = %28
  %38 = shl i32 %22, %24
  %39 = tail call i32 @llvm.bswap.i32(i32 %38)
  store i32 %39, ptr %32, align 1, !tbaa !70
  %40 = load ptr, ptr %31, align 8, !tbaa !110
  %41 = getelementptr inbounds nuw i8, ptr %40, i64 4
  store ptr %41, ptr %31, align 8, !tbaa !110
  br label %43

42:                                               ; preds = %28
  tail call void (ptr, i32, ptr, ...) @av_log(ptr noundef null, i32 noundef 16, ptr noundef nonnull @.str.43) #11
  br label %43

43:                                               ; preds = %42, %37
  %reass.sub.i = add nsw i32 %24, 32
  br label %put_bits.exit

put_bits.exit:                                    ; preds = %26, %43
  %.026.i.i = phi i32 [ %27, %26 ], [ 0, %43 ]
  %.pn = phi i32 [ %24, %26 ], [ %reass.sub.i, %43 ]
  %.0.i.i = sub i32 %.pn, %21
  store i32 %.026.i.i, ptr %0, align 8, !tbaa !112
  store i32 %.0.i.i, ptr %23, align 4, !tbaa !111
  %44 = add nuw nsw i32 %19, 1
  %45 = icmp slt i32 %44, %.0.i.i
  br i1 %45, label %46, label %50

46:                                               ; preds = %put_bits.exit
  %47 = shl i32 %.026.i.i, %44
  %48 = or i32 %47, %11
  %49 = sub nsw i32 %.0.i.i, %44
  br label %put_bits.exit35

50:                                               ; preds = %put_bits.exit
  %51 = getelementptr inbounds nuw i8, ptr %0, i64 24
  %52 = load ptr, ptr %51, align 8, !tbaa !109
  %53 = getelementptr inbounds nuw i8, ptr %0, i64 16
  %54 = load ptr, ptr %53, align 8, !tbaa !110
  %55 = ptrtoint ptr %52 to i64
  %56 = ptrtoint ptr %54 to i64
  %57 = sub i64 %55, %56
  %58 = icmp ugt i64 %57, 3
  br i1 %58, label %59, label %67

59:                                               ; preds = %50
  %60 = shl i32 %.026.i.i, %.0.i.i
  %61 = sub nsw i32 %44, %.0.i.i
  %62 = lshr i32 %11, %61
  %63 = or i32 %62, %60
  %64 = tail call i32 @llvm.bswap.i32(i32 %63)
  store i32 %64, ptr %54, align 1, !tbaa !70
  %65 = load ptr, ptr %53, align 8, !tbaa !110
  %66 = getelementptr inbounds nuw i8, ptr %65, i64 4
  store ptr %66, ptr %53, align 8, !tbaa !110
  br label %68

67:                                               ; preds = %50
  tail call void (ptr, i32, ptr, ...) @av_log(ptr noundef null, i32 noundef 16, ptr noundef nonnull @.str.43) #11
  br label %68

68:                                               ; preds = %67, %59
  %reass.sub = sub i32 %.0.i.i, %19
  %69 = add i32 %reass.sub, 31
  br label %put_bits.exit35

put_bits.exit35:                                  ; preds = %46, %68
  %.026.i.i33 = phi i32 [ %48, %46 ], [ %11, %68 ]
  %.0.i.i34 = phi i32 [ %49, %46 ], [ %69, %68 ]
  store i32 %.026.i.i33, ptr %0, align 8, !tbaa !112
  store i32 %.0.i.i34, ptr %23, align 4, !tbaa !111
  br label %148

70:                                               ; preds = %3
  %71 = lshr i32 %2, %6
  %.not30 = icmp eq i32 %71, 0
  %.pre = load i32, ptr %0, align 8, !tbaa !112
  %.phi.trans.insert = getelementptr inbounds nuw i8, ptr %0, i64 4
  %.pre54 = load i32, ptr %.phi.trans.insert, align 4, !tbaa !111
  br i1 %.not30, label %._crit_edge, label %72

72:                                               ; preds = %70
  %73 = icmp slt i32 %71, %.pre54
  br i1 %73, label %74, label %77

74:                                               ; preds = %72
  %75 = shl i32 %.pre, %71
  %76 = sub nsw i32 %.pre54, %71
  br label %put_bits.exit39

77:                                               ; preds = %72
  %78 = getelementptr inbounds nuw i8, ptr %0, i64 24
  %79 = load ptr, ptr %78, align 8, !tbaa !109
  %80 = getelementptr inbounds nuw i8, ptr %0, i64 16
  %81 = load ptr, ptr %80, align 8, !tbaa !110
  %82 = ptrtoint ptr %79 to i64
  %83 = ptrtoint ptr %81 to i64
  %84 = sub i64 %82, %83
  %85 = icmp ugt i64 %84, 3
  br i1 %85, label %86, label %91

86:                                               ; preds = %77
  %87 = shl i32 %.pre, %.pre54
  %88 = tail call i32 @llvm.bswap.i32(i32 %87)
  store i32 %88, ptr %81, align 1, !tbaa !70
  %89 = load ptr, ptr %80, align 8, !tbaa !110
  %90 = getelementptr inbounds nuw i8, ptr %89, i64 4
  store ptr %90, ptr %80, align 8, !tbaa !110
  br label %92

91:                                               ; preds = %77
  tail call void (ptr, i32, ptr, ...) @av_log(ptr noundef null, i32 noundef 16, ptr noundef nonnull @.str.43) #11
  br label %92

92:                                               ; preds = %91, %86
  %reass.sub52 = sub i32 %.pre54, %71
  %93 = add i32 %reass.sub52, 32
  br label %put_bits.exit39

put_bits.exit39:                                  ; preds = %74, %92
  %.026.i.i37 = phi i32 [ %75, %74 ], [ 0, %92 ]
  %.0.i.i38 = phi i32 [ %76, %74 ], [ %93, %92 ]
  store i32 %.026.i.i37, ptr %0, align 8, !tbaa !112
  store i32 %.0.i.i38, ptr %.phi.trans.insert, align 4, !tbaa !111
  br label %._crit_edge

._crit_edge:                                      ; preds = %70, %put_bits.exit39
  %94 = phi i32 [ %.0.i.i38, %put_bits.exit39 ], [ %.pre54, %70 ]
  %95 = phi i32 [ %.026.i.i37, %put_bits.exit39 ], [ %.pre, %70 ]
  %96 = getelementptr inbounds nuw i8, ptr %0, i64 4
  %97 = icmp sgt i32 %94, 1
  br i1 %97, label %98, label %101

98:                                               ; preds = %._crit_edge
  %99 = shl i32 %95, 1
  %100 = or disjoint i32 %99, 1
  br label %put_bits.exit43

101:                                              ; preds = %._crit_edge
  %102 = getelementptr inbounds nuw i8, ptr %0, i64 24
  %103 = load ptr, ptr %102, align 8, !tbaa !109
  %104 = getelementptr inbounds nuw i8, ptr %0, i64 16
  %105 = load ptr, ptr %104, align 8, !tbaa !110
  %106 = ptrtoint ptr %103 to i64
  %107 = ptrtoint ptr %105 to i64
  %108 = sub i64 %106, %107
  %109 = icmp ugt i64 %108, 3
  br i1 %109, label %110, label %118

110:                                              ; preds = %101
  %111 = shl i32 %95, %94
  %112 = sub nsw i32 1, %94
  %113 = lshr i32 1, %112
  %114 = or i32 %113, %111
  %115 = tail call i32 @llvm.bswap.i32(i32 %114)
  store i32 %115, ptr %105, align 1, !tbaa !70
  %116 = load ptr, ptr %104, align 8, !tbaa !110
  %117 = getelementptr inbounds nuw i8, ptr %116, i64 4
  store ptr %117, ptr %104, align 8, !tbaa !110
  br label %put_bits.exit43

118:                                              ; preds = %101
  tail call void (ptr, i32, ptr, ...) @av_log(ptr noundef null, i32 noundef 16, ptr noundef nonnull @.str.43) #11
  br label %put_bits.exit43

put_bits.exit43:                                  ; preds = %110, %118, %98
  %.sink = phi i32 [ -1, %98 ], [ 31, %118 ], [ 31, %110 ]
  %.026.i.i41 = phi i32 [ %100, %98 ], [ 1, %118 ], [ 1, %110 ]
  %119 = add nsw i32 %94, %.sink
  store i32 %.026.i.i41, ptr %0, align 8, !tbaa !112
  store i32 %119, ptr %96, align 4, !tbaa !111
  %.not31 = icmp samesign ult i32 %1, 32
  br i1 %.not31, label %148, label %120

120:                                              ; preds = %put_bits.exit43
  %notmask.i.i = shl nsw i32 -1, %6
  %121 = xor i32 %notmask.i.i, -1
  %122 = and i32 %2, %121
  %123 = icmp slt i32 %6, %119
  br i1 %123, label %124, label %128

124:                                              ; preds = %120
  %125 = shl i32 %.026.i.i41, %6
  %126 = or i32 %125, %122
  %127 = sub nsw i32 %119, %6
  br label %put_sbits.exit

128:                                              ; preds = %120
  %129 = getelementptr inbounds nuw i8, ptr %0, i64 24
  %130 = load ptr, ptr %129, align 8, !tbaa !109
  %131 = getelementptr inbounds nuw i8, ptr %0, i64 16
  %132 = load ptr, ptr %131, align 8, !tbaa !110
  %133 = ptrtoint ptr %130 to i64
  %134 = ptrtoint ptr %132 to i64
  %135 = sub i64 %133, %134
  %136 = icmp ugt i64 %135, 3
  br i1 %136, label %137, label %145

137:                                              ; preds = %128
  %138 = shl i32 %.026.i.i41, %119
  %139 = sub nsw i32 %6, %119
  %140 = lshr i32 %122, %139
  %141 = or i32 %140, %138
  %142 = tail call i32 @llvm.bswap.i32(i32 %141)
  store i32 %142, ptr %132, align 1, !tbaa !70
  %143 = load ptr, ptr %131, align 8, !tbaa !110
  %144 = getelementptr inbounds nuw i8, ptr %143, i64 4
  store ptr %144, ptr %131, align 8, !tbaa !110
  br label %146

145:                                              ; preds = %128
  tail call void (ptr, i32, ptr, ...) @av_log(ptr noundef null, i32 noundef 16, ptr noundef nonnull @.str.43) #11
  br label %146

146:                                              ; preds = %145, %137
  %reass.sub53 = sub nsw i32 %119, %6
  %147 = add nsw i32 %reass.sub53, 32
  br label %put_sbits.exit

put_sbits.exit:                                   ; preds = %124, %146
  %.026.i.i.i = phi i32 [ %126, %124 ], [ %122, %146 ]
  %.0.i.i.i = phi i32 [ %127, %124 ], [ %147, %146 ]
  store i32 %.026.i.i.i, ptr %0, align 8, !tbaa !112
  store i32 %.0.i.i.i, ptr %96, align 4, !tbaa !111
  br label %148

148:                                              ; preds = %put_bits.exit43, %put_sbits.exit, %put_bits.exit35
  ret void
}